target datalayout = "e-m:e-p270:32:32-p271:32:32-p272:64:64-i64:64-i128:128-f80:128-n8:16:32:64-S128"
target triple = "x86_64-pc-linux-gnu"

%"class.std::__1::chrono::tzdb_list" = type { ptr }

@_ZZNSt3__16chrono13get_tzdb_listB8ne210000EvE8__result = internal global %"class.std::__1::chrono::tzdb_list" zeroinitializer, align 8
@_ZGVZNSt3__16chrono13get_tzdb_listB8ne210000EvE8__result = internal global i64 0, align 8
@__dso_handle = external hidden global i8

; Function Attrs: mustprogress nounwind uwtable
define linkonce_odr hidden void @_ZNSt3__16chrono9tzdb_listC2B8ne210000EPNS1_6__implE(ptr noundef nonnull align 8 dereferenceable(8) %0, ptr noundef %1) unnamed_addr #1 comdat align 2 {
  %3 = alloca ptr, align 8
  %4 = alloca ptr, align 8
  store ptr %0, ptr %3, align 8, !tbaa !48
  store ptr %1, ptr %4, align 8, !tbaa !46
  %5 = load ptr, ptr %3, align 8
  %6 = getelementptr inbounds nuw %"class.std::__1::chrono::tzdb_list", ptr %5, i32 0, i32 0
  %7 = load ptr, ptr %4, align 8, !tbaa !46
  store ptr %7, ptr %6, align 8, !tbaa !50
  ret void
}

; Function Attrs: mustprogress uwtable
define dso_local noundef nonnull align 8 dereferenceable(8) ptr @_ZNSt3__16chrono13get_tzdb_listB8ne210000Ev() #0 personality ptr @__gxx_personality_v0 {
  %1 = alloca ptr, align 8
  %2 = alloca i32, align 4
  %3 = load atomic i8, ptr @_ZGVZNSt3__16chrono13get_tzdb_listB8ne210000EvE8__result acquire, align 8
  %4 = icmp eq i8 %3, 0
  br i1 %4, label %5, label %14, !prof !45

5:                                                ; preds = %0
  %6 = call i32 @__cxa_guard_acquire(ptr @_ZGVZNSt3__16chrono13get_tzdb_listB8ne210000EvE8__result) #4
  %7 = icmp ne i32 %6, 0
  br i1 %7, label %8, label %14

8:                                                ; preds = %5
  %9 = invoke noalias noundef nonnull ptr @_Znwm(i64 noundef 56) #25
          to label %10 unwind label %15

10:                                               ; preds = %8
  invoke void @_ZNSt3__16chrono9tzdb_list6__implC2B8ne210000Ev(ptr noundef nonnull align 8 dereferenceable(56) %9)
          to label %11 unwind label %19

11:                                               ; preds = %10
  invoke void @_ZNSt3__16chrono9tzdb_listC2B8ne210000EPNS1_6__implE(ptr noundef nonnull align 8 dereferenceable(8) @_ZZNSt3__16chrono13get_tzdb_listB8ne210000EvE8__result, ptr noundef %9)
          to label %12 unwind label %15

12:                                               ; preds = %11
  %13 = call i32 @__cxa_atexit(ptr @_ZNSt3__16chrono9tzdb_listD1B8ne210000Ev, ptr @_ZZNSt3__16chrono13get_tzdb_listB8ne210000EvE8__result, ptr @__dso_handle) #4
  call void @__cxa_guard_release(ptr @_ZGVZNSt3__16chrono13get_tzdb_listB8ne210000EvE8__result) #4
  br label %14

14:                                               ; preds = %12, %5, %0
  ret ptr @_ZZNSt3__16chrono13get_tzdb_listB8ne210000EvE8__result

15:                                               ; preds = %11, %8
  %16 = landingpad { ptr, i32 }
          cleanup
  %17 = extractvalue { ptr, i32 } %16, 0
  store ptr %17, ptr %1, align 8
  %18 = extractvalue { ptr, i32 } %16, 1
  store i32 %18, ptr %2, align 4
  br label %23

19:                                               ; preds = %10
  %20 = landingpad { ptr, i32 }
          cleanup
  %21 = extractvalue { ptr, i32 } %20, 0
  store ptr %21, ptr %1, align 8
  %22 = extractvalue { ptr, i32 } %20, 1
  store i32 %22, ptr %2, align 4
  call void @_ZdlPvm(ptr noundef %9, i64 noundef 56) #26
  br label %23

23:                                               ; preds = %19, %15
  call void @__cxa_guard_abort(ptr @_ZGVZNSt3__16chrono13get_tzdb_listB8ne210000EvE8__result) #4
  br label %24

24:                                               ; preds = %23
  %25 = load ptr, ptr %1, align 8
  %26 = load i32, ptr %2, align 4
  %27 = insertvalue { ptr, i32 } poison, ptr %25, 0
  %28 = insertvalue { ptr, i32 } %27, i32 %26, 1
  resume { ptr, i32 } %28
}