; Function Attrs: mustprogress uwtable
define dso_local noundef nonnull align 8 dereferenceable(8) ptr @_ZNSt3__16chrono13get_tzdb_listB8ne210000Ev() local_unnamed_addr #0 personality ptr @__gxx_personality_v0 {
  %1 = load atomic i8, ptr @_ZGVZNSt3__16chrono13get_tzdb_listB8ne210000EvE8__result acquire, align 8
  %2 = icmp eq i8 %1, 0
  br i1 %2, label %3, label %10, !prof !129

3:                                                ; preds = %0
  %4 = tail call i32 @__cxa_guard_acquire(ptr nonnull @_ZGVZNSt3__16chrono13get_tzdb_listB8ne210000EvE8__result) #30
  %.not = icmp eq i32 %4, 0
  br i1 %.not, label %10, label %5

5:                                                ; preds = %3
  %6 = invoke noalias noundef nonnull dereferenceable(56) ptr @_Znwm(i64 noundef 56) #34
          to label %7 unwind label %11

7:                                                ; preds = %5
  invoke void @_ZNSt3__16chrono9tzdb_list6__implC2B8ne210000Ev(ptr noundef nonnull align 8 dereferenceable(56) %6)
          to label %8 unwind label %13

8:                                                ; preds = %7
  store ptr %6, ptr @_ZZNSt3__16chrono13get_tzdb_listB8ne210000EvE8__result, align 8, !tbaa !130
  %9 = tail call i32 @__cxa_atexit(ptr nonnull @_ZNSt3__16chrono9tzdb_listD1B8ne210000Ev, ptr nonnull @_ZZNSt3__16chrono13get_tzdb_listB8ne210000EvE8__result, ptr nonnull @__dso_handle) #30
  tail call void @__cxa_guard_release(ptr nonnull @_ZGVZNSt3__16chrono13get_tzdb_listB8ne210000EvE8__result) #30
  br label %10

10:                                               ; preds = %8, %3, %0
  ret ptr @_ZZNSt3__16chrono13get_tzdb_listB8ne210000EvE8__result

11:                                               ; preds = %5
  %12 = landingpad { ptr, i32 }
          cleanup
  br label %15

13:                                               ; preds = %7
  %14 = landingpad { ptr, i32 }
          cleanup
  tail call void @_ZdlPvm(ptr noundef nonnull %6, i64 noundef 56) #31
  br label %15

15:                                               ; preds = %13, %11
  %.pn = phi { ptr, i32 } [ %14, %13 ], [ %12, %11 ]
  tail call void @__cxa_guard_abort(ptr nonnull @_ZGVZNSt3__16chrono13get_tzdb_listB8ne210000EvE8__result) #30
  resume { ptr, i32 } %.pn
}